target datalayout = "e-m:e-p270:32:32-p271:32:32-p272:64:64-i64:64-i128:128-f80:128-n8:16:32:64-S128"
target triple = "x86_64-pc-linux-gnu"

%"class.cv::Size_" = type { i32, i32 }

; Function Attrs: mustprogress uwtable
define noundef nonnull align 8 dereferenceable(8) ptr @_ZN2cv4gapi4s11nlsERNS1_8IOStreamERKNS_5Size_IiEE(ptr noundef nonnull align 8 dereferenceable(8) %0, ptr noundef nonnull align 4 dereferenceable(8) %1) #4 {
  %3 = alloca ptr, align 8
  %4 = alloca ptr, align 8
  store ptr %0, ptr %3, align 8, !tbaa !3
  store ptr %1, ptr %4, align 8, !tbaa !30
  %5 = load ptr, ptr %3, align 8, !tbaa !3
  %6 = load ptr, ptr %4, align 8, !tbaa !30
  %7 = getelementptr inbounds nuw %"class.cv::Size_", ptr %6, i32 0, i32 0
  %8 = load i32, ptr %7, align 4, !tbaa !32
  %9 = load ptr, ptr %5, align 8, !tbaa !13
  %10 = getelementptr inbounds ptr, ptr %9, i64 7
  %11 = load ptr, ptr %10, align 8
  %12 = call noundef nonnull align 8 dereferenceable(8) ptr %11(ptr noundef nonnull align 8 dereferenceable(8) %5, i32 noundef %8)
  %13 = load ptr, ptr %4, align 8, !tbaa !30
  %14 = getelementptr inbounds nuw %"class.cv::Size_", ptr %13, i32 0, i32 1
  %15 = load i32, ptr %14, align 4, !tbaa !34
  %16 = load ptr, ptr %12, align 8, !tbaa !13
  %17 = getelementptr inbounds ptr, ptr %16, i64 7
  %18 = load ptr, ptr %17, align 8
  %19 = call noundef nonnull align 8 dereferenceable(8) ptr %18(ptr noundef nonnull align 8 dereferenceable(8) %12, i32 noundef %15)
  ret ptr %19
}